; ModuleID = '31/1647.c'
source_filename = "31/1647.c"
target datalayout = "e-m:e-p270:32:32-p271:32:32-p272:64:64-i64:64-f80:128-n8:16:32:64-S128"
target triple = "x86_64-pc-linux-gnu"

%struct.student = type { [200 x i8], %struct.student* }

@n = common dso_local global i32 0, align 4
@.str = private unnamed_addr constant [4 x i8] c"end\00", align 1
@.str.1 = private unnamed_addr constant [4 x i8] c"%s\0A\00", align 1
@.str.2 = private unnamed_addr constant [3 x i8] c"%s\00", align 1

; Function Attrs: noinline nounwind uwtable
define dso_local %struct.student* @creat() #0 {
  %1 = alloca %struct.student*, align 8
  %2 = alloca %struct.student*, align 8
  %3 = alloca %struct.student*, align 8
  store i32 0, i32* @n, align 4
  %4 = call noalias i8* @malloc(i64 100) #4
  %5 = bitcast i8* %4 to %struct.student*
  store %struct.student* %5, %struct.student** %2, align 8
  %6 = load %struct.student*, %struct.student** %2, align 8
  store %struct.student* %6, %struct.student** %3, align 8
  %7 = load %struct.student*, %struct.student** %2, align 8
  %8 = getelementptr inbounds %struct.student, %struct.student* %7, i32 0, i32 0
  %9 = getelementptr inbounds [200 x i8], [200 x i8]* %8, i64 0, i64 0
  %10 = call i32 (i8*, ...) bitcast (i32 (...)* @gets to i32 (i8*, ...)*)(i8* %9)
  store %struct.student* null, %struct.student** %1, align 8
  br label %11

11:                                               ; preds = %30, %0
  %12 = load i32, i32* @n, align 4
  %13 = add nsw i32 %12, 1
  store i32 %13, i32* @n, align 4
  %14 = load i32, i32* @n, align 4
  %15 = icmp eq i32 %14, 1
  br i1 %15, label %16, label %18

16:                                               ; preds = %11
  %17 = load %struct.student*, %struct.student** %2, align 8
  store %struct.student* %17, %struct.student** %1, align 8
  br label %22

18:                                               ; preds = %11
  %19 = load %struct.student*, %struct.student** %2, align 8
  %20 = load %struct.student*, %struct.student** %3, align 8
  %21 = getelementptr inbounds %struct.student, %struct.student* %20, i32 0, i32 1
  store %struct.student* %19, %struct.student** %21, align 8
  br label %22

22:                                               ; preds = %18, %16
  %23 = load %struct.student*, %struct.student** %2, align 8
  store %struct.student* %23, %struct.student** %3, align 8
  %24 = call noalias i8* @malloc(i64 100) #4
  %25 = bitcast i8* %24 to %struct.student*
  store %struct.student* %25, %struct.student** %2, align 8
  %26 = load %struct.student*, %struct.student** %2, align 8
  %27 = getelementptr inbounds %struct.student, %struct.student* %26, i32 0, i32 0
  %28 = getelementptr inbounds [200 x i8], [200 x i8]* %27, i64 0, i64 0
  %29 = call i32 (i8*, ...) bitcast (i32 (...)* @gets to i32 (i8*, ...)*)(i8* %28)
  br label %30

30:                                               ; preds = %22
  %31 = load %struct.student*, %struct.student** %2, align 8
  %32 = getelementptr inbounds %struct.student, %struct.student* %31, i32 0, i32 0
  %33 = getelementptr inbounds [200 x i8], [200 x i8]* %32, i64 0, i64 0
  %34 = call i32 @strcmp(i8* %33, i8* getelementptr inbounds ([4 x i8], [4 x i8]* @.str, i64 0, i64 0)) #5
  %35 = icmp ne i32 %34, 0
  br i1 %35, label %11, label %36

36:                                               ; preds = %30
  %37 = load %struct.student*, %struct.student** %3, align 8
  %38 = getelementptr inbounds %struct.student, %struct.student* %37, i32 0, i32 1
  store %struct.student* null, %struct.student** %38, align 8
  %39 = load %struct.student*, %struct.student** %1, align 8
  ret %struct.student* %39
}

; Function Attrs: nounwind
declare dso_local noalias i8* @malloc(i64) #1

declare dso_local i32 @gets(...) #2

; Function Attrs: nounwind readonly
declare dso_local i32 @strcmp(i8*, i8*) #3

; Function Attrs: noinline nounwind uwtable
define dso_local i32 @main() #0 {
  %1 = alloca i32, align 4
  %2 = alloca %struct.student*, align 8
  %3 = alloca %struct.student*, align 8
  store i32 0, i32* %1, align 4
  %4 = call %struct.student* @creat()
  store %struct.student* %4, %struct.student** %2, align 8
  %5 = load %struct.student*, %struct.student** %2, align 8
  store %struct.student* %5, %struct.student** %3, align 8
  %6 = load %struct.student*, %struct.student** %2, align 8
  %7 = getelementptr inbounds %struct.student, %struct.student* %6, i32 0, i32 1
  %8 = load %struct.student*, %struct.student** %7, align 8
  store %struct.student* %8, %struct.student** %2, align 8
  br label %9

9:                                                ; preds = %41, %0
  %10 = load %struct.student*, %struct.student** %2, align 8
  %11 = load %struct.student*, %struct.student** %3, align 8
  %12 = icmp ne %struct.student* %10, %11
  br i1 %12, label %13, label %44

13:                                               ; preds = %9
  %14 = load %struct.student*, %struct.student** %3, align 8
  store %struct.student* %14, %struct.student** %2, align 8
  br label %15

15:                                               ; preds = %20, %13
  %16 = load %struct.student*, %struct.student** %2, align 8
  %17 = getelementptr inbounds %struct.student, %struct.student* %16, i32 0, i32 1
  %18 = load %struct.student*, %struct.student** %17, align 8
  %19 = icmp ne %struct.student* %18, null
  br i1 %19, label %20, label %24

20:                                               ; preds = %15
  %21 = load %struct.student*, %struct.student** %2, align 8
  %22 = getelementptr inbounds %struct.student, %struct.student* %21, i32 0, i32 1
  %23 = load %struct.student*, %struct.student** %22, align 8
  store %struct.student* %23, %struct.student** %2, align 8
  br label %15

24:                                               ; preds = %15
  %25 = load %struct.student*, %struct.student** %2, align 8
  %26 = getelementptr inbounds %struct.student, %struct.student* %25, i32 0, i32 0
  %27 = getelementptr inbounds [200 x i8], [200 x i8]* %26, i64 0, i64 0
  %28 = call i32 (i8*, ...) @printf(i8* getelementptr inbounds ([4 x i8], [4 x i8]* @.str.1, i64 0, i64 0), i8* %27)
  %29 = load %struct.student*, %struct.student** %3, align 8
  store %struct.student* %29, %struct.student** %2, align 8
  br label %30

30:                                               ; preds = %37, %24
  %31 = load %struct.student*, %struct.student** %2, align 8
  %32 = getelementptr inbounds %struct.student, %struct.student* %31, i32 0, i32 1
  %33 = load %struct.student*, %struct.student** %32, align 8
  %34 = getelementptr inbounds %struct.student, %struct.student* %33, i32 0, i32 1
  %35 = load %struct.student*, %struct.student** %34, align 8
  %36 = icmp ne %struct.student* %35, null
  br i1 %36, label %37, label %41

37:                                               ; preds = %30
  %38 = load %struct.student*, %struct.student** %2, align 8
  %39 = getelementptr inbounds %struct.student, %struct.student* %38, i32 0, i32 1
  %40 = load %struct.student*, %struct.student** %39, align 8
  store %struct.student* %40, %struct.student** %2, align 8
  br label %30

41:                                               ; preds = %30
  %42 = load %struct.student*, %struct.student** %2, align 8
  %43 = getelementptr inbounds %struct.student, %struct.student* %42, i32 0, i32 1
  store %struct.student* null, %struct.student** %43, align 8
  br label %9

44:                                               ; preds = %9
  %45 = load %struct.student*, %struct.student** %3, align 8
  %46 = getelementptr inbounds %struct.student, %struct.student* %45, i32 0, i32 0
  %47 = getelementptr inbounds [200 x i8], [200 x i8]* %46, i64 0, i64 0
  %48 = call i32 (i8*, ...) @printf(i8* getelementptr inbounds ([3 x i8], [3 x i8]* @.str.2, i64 0, i64 0), i8* %47)
  %49 = load i32, i32* %1, align 4
  ret i32 %49
}

declare dso_local i32 @printf(i8*, ...) #2


!llvm.module.flags = !{!0}
!llvm.ident = !{!1}

!0 = !{i32 1, !"wchar_size", i32 4}
!1 = !{!"clang version 10.0.0-4ubuntu1 "}
